target datalayout = "e-m:e-p270:32:32-p271:32:32-p272:64:64-i64:64-i128:128-f80:128-n8:16:32:64-S128"
target triple = "x86_64-pc-linux-gnu"

; Function Attrs: inlinehint nounwind uwtable
define internal i32 @git_is_dir_sep(i32 noundef %0) #2 {
  %2 = alloca i32, align 4
  store i32 %0, ptr %2, align 4, !tbaa !4
  %3 = load i32, ptr %2, align 4, !tbaa !4
  %4 = icmp eq i32 %3, 47
  %5 = zext i1 %4 to i32
  ret i32 %5
}

; Function Attrs: inlinehint nounwind uwtable
define internal i32 @git_offset_1st_component(ptr noundef %0) #2 {
  %2 = alloca ptr, align 8
  store ptr %0, ptr %2, align 8, !tbaa !43
  %3 = load ptr, ptr %2, align 8, !tbaa !43
  %4 = getelementptr inbounds i8, ptr %3, i64 0
  %5 = load i8, ptr %4, align 1, !tbaa !18
  %6 = sext i8 %5 to i32
  %7 = call i32 @git_is_dir_sep(i32 noundef %6)
  ret i32 %7
}

; Function Attrs: nounwind uwtable
define dso_local i32 @normalize_path_copy_len(ptr noundef %0, ptr noundef %1, ptr noundef %2) #0 {
  %4 = alloca i32, align 4
  %5 = alloca ptr, align 8
  %6 = alloca ptr, align 8
  %7 = alloca ptr, align 8
  %8 = alloca ptr, align 8
  %9 = alloca ptr, align 8
  %10 = alloca i8, align 1
  %11 = alloca i8, align 1
  %12 = alloca i32, align 4
  store ptr %0, ptr %5, align 8, !tbaa !43
  store ptr %1, ptr %6, align 8, !tbaa !43
  store ptr %2, ptr %7, align 8, !tbaa !90
  call void @llvm.lifetime.start.p0(i64 8, ptr %8) #12
  call void @llvm.lifetime.start.p0(i64 8, ptr %9) #12
  %13 = load ptr, ptr %6, align 8, !tbaa !43
  %14 = load ptr, ptr %6, align 8, !tbaa !43
  %15 = call i32 @git_offset_1st_component(ptr noundef %14)
  %16 = sext i32 %15 to i64
  %17 = getelementptr inbounds i8, ptr %13, i64 %16
  store ptr %17, ptr %9, align 8, !tbaa !43
  br label %18

18:                                               ; preds = %31, %3
  %19 = load ptr, ptr %6, align 8, !tbaa !43
  %20 = load ptr, ptr %9, align 8, !tbaa !43
  %21 = icmp ult ptr %19, %20
  br i1 %21, label %22, label %35

22:                                               ; preds = %18
  call void @llvm.lifetime.start.p0(i64 1, ptr %10) #12
  %23 = load ptr, ptr %6, align 8, !tbaa !43
  %24 = getelementptr inbounds nuw i8, ptr %23, i32 1
  store ptr %24, ptr %6, align 8, !tbaa !43
  %25 = load i8, ptr %23, align 1, !tbaa !18
  store i8 %25, ptr %10, align 1, !tbaa !18
  %26 = load i8, ptr %10, align 1, !tbaa !18
  %27 = sext i8 %26 to i32
  %28 = call i32 @git_is_dir_sep(i32 noundef %27)
  %29 = icmp ne i32 %28, 0
  br i1 %29, label %30, label %31

30:                                               ; preds = %22
  store i8 47, ptr %10, align 1, !tbaa !18
  br label %31

31:                                               ; preds = %30, %22
  %32 = load i8, ptr %10, align 1, !tbaa !18
  %33 = load ptr, ptr %5, align 8, !tbaa !43
  %34 = getelementptr inbounds nuw i8, ptr %33, i32 1
  store ptr %34, ptr %5, align 8, !tbaa !43
  store i8 %32, ptr %33, align 1, !tbaa !18
  call void @llvm.lifetime.end.p0(i64 1, ptr %10) #12
  br label %18, !llvm.loop !103

35:                                               ; preds = %18
  %36 = load ptr, ptr %5, align 8, !tbaa !43
  store ptr %36, ptr %8, align 8, !tbaa !43
  br label %37

37:                                               ; preds = %43, %35
  %38 = load ptr, ptr %6, align 8, !tbaa !43
  %39 = load i8, ptr %38, align 1, !tbaa !18
  %40 = sext i8 %39 to i32
  %41 = call i32 @git_is_dir_sep(i32 noundef %40)
  %42 = icmp ne i32 %41, 0
  br i1 %42, label %43, label %46

43:                                               ; preds = %37
  %44 = load ptr, ptr %6, align 8, !tbaa !43
  %45 = getelementptr inbounds nuw i8, ptr %44, i32 1
  store ptr %45, ptr %6, align 8, !tbaa !43
  br label %37, !llvm.loop !104

46:                                               ; preds = %37
  br label %47

47:                                               ; preds = %212, %210, %46
  call void @llvm.lifetime.start.p0(i64 1, ptr %11) #12
  %48 = load ptr, ptr %6, align 8, !tbaa !43
  %49 = load i8, ptr %48, align 1, !tbaa !18
  store i8 %49, ptr %11, align 1, !tbaa !18
  %50 = load i8, ptr %11, align 1, !tbaa !18
  %51 = sext i8 %50 to i32
  %52 = icmp eq i32 %51, 46
  br i1 %52, label %53, label %120

53:                                               ; preds = %47
  %54 = load ptr, ptr %6, align 8, !tbaa !43
  %55 = getelementptr inbounds i8, ptr %54, i64 1
  %56 = load i8, ptr %55, align 1, !tbaa !18
  %57 = icmp ne i8 %56, 0
  br i1 %57, label %61, label %58

58:                                               ; preds = %53
  %59 = load ptr, ptr %6, align 8, !tbaa !43
  %60 = getelementptr inbounds nuw i8, ptr %59, i32 1
  store ptr %60, ptr %6, align 8, !tbaa !43
  br label %119

61:                                               ; preds = %53
  %62 = load ptr, ptr %6, align 8, !tbaa !43
  %63 = getelementptr inbounds i8, ptr %62, i64 1
  %64 = load i8, ptr %63, align 1, !tbaa !18
  %65 = sext i8 %64 to i32
  %66 = call i32 @git_is_dir_sep(i32 noundef %65)
  %67 = icmp ne i32 %66, 0
  br i1 %67, label %68, label %81

68:                                               ; preds = %61
  %69 = load ptr, ptr %6, align 8, !tbaa !43
  %70 = getelementptr inbounds i8, ptr %69, i64 2
  store ptr %70, ptr %6, align 8, !tbaa !43
  br label %71

71:                                               ; preds = %77, %68
  %72 = load ptr, ptr %6, align 8, !tbaa !43
  %73 = load i8, ptr %72, align 1, !tbaa !18
  %74 = sext i8 %73 to i32
  %75 = call i32 @git_is_dir_sep(i32 noundef %74)
  %76 = icmp ne i32 %75, 0
  br i1 %76, label %77, label %80

77:                                               ; preds = %71
  %78 = load ptr, ptr %6, align 8, !tbaa !43
  %79 = getelementptr inbounds nuw i8, ptr %78, i32 1
  store ptr %79, ptr %6, align 8, !tbaa !43
  br label %71, !llvm.loop !105

80:                                               ; preds = %71
  store i32 7, ptr %12, align 4
  br label %210

81:                                               ; preds = %61
  %82 = load ptr, ptr %6, align 8, !tbaa !43
  %83 = getelementptr inbounds i8, ptr %82, i64 1
  %84 = load i8, ptr %83, align 1, !tbaa !18
  %85 = sext i8 %84 to i32
  %86 = icmp eq i32 %85, 46
  br i1 %86, label %87, label %117

87:                                               ; preds = %81
  %88 = load ptr, ptr %6, align 8, !tbaa !43
  %89 = getelementptr inbounds i8, ptr %88, i64 2
  %90 = load i8, ptr %89, align 1, !tbaa !18
  %91 = icmp ne i8 %90, 0
  br i1 %91, label %95, label %92

92:                                               ; preds = %87
  %93 = load ptr, ptr %6, align 8, !tbaa !43
  %94 = getelementptr inbounds i8, ptr %93, i64 2
  store ptr %94, ptr %6, align 8, !tbaa !43
  br label %165

95:                                               ; preds = %87
  %96 = load ptr, ptr %6, align 8, !tbaa !43
  %97 = getelementptr inbounds i8, ptr %96, i64 2
  %98 = load i8, ptr %97, align 1, !tbaa !18
  %99 = sext i8 %98 to i32
  %100 = call i32 @git_is_dir_sep(i32 noundef %99)
  %101 = icmp ne i32 %100, 0
  br i1 %101, label %102, label %115

102:                                              ; preds = %95
  %103 = load ptr, ptr %6, align 8, !tbaa !43
  %104 = getelementptr inbounds i8, ptr %103, i64 3
  store ptr %104, ptr %6, align 8, !tbaa !43
  br label %105

105:                                              ; preds = %111, %102
  %106 = load ptr, ptr %6, align 8, !tbaa !43
  %107 = load i8, ptr %106, align 1, !tbaa !18
  %108 = sext i8 %107 to i32
  %109 = call i32 @git_is_dir_sep(i32 noundef %108)
  %110 = icmp ne i32 %109, 0
  br i1 %110, label %111, label %114

111:                                              ; preds = %105
  %112 = load ptr, ptr %6, align 8, !tbaa !43
  %113 = getelementptr inbounds nuw i8, ptr %112, i32 1
  store ptr %113, ptr %6, align 8, !tbaa !43
  br label %105, !llvm.loop !106

114:                                              ; preds = %105
  br label %165

115:                                              ; preds = %95
  br label %116

116:                                              ; preds = %115
  br label %117

117:                                              ; preds = %116, %81
  br label %118

118:                                              ; preds = %117
  br label %119

119:                                              ; preds = %118, %58
  br label %120

120:                                              ; preds = %119, %47
  br label %121

121:                                              ; preds = %135, %120
  %122 = load ptr, ptr %6, align 8, !tbaa !43
  %123 = getelementptr inbounds nuw i8, ptr %122, i32 1
  store ptr %123, ptr %6, align 8, !tbaa !43
  %124 = load i8, ptr %122, align 1, !tbaa !18
  store i8 %124, ptr %11, align 1, !tbaa !18
  %125 = sext i8 %124 to i32
  %126 = icmp ne i32 %125, 0
  br i1 %126, label %127, label %133

127:                                              ; preds = %121
  %128 = load i8, ptr %11, align 1, !tbaa !18
  %129 = sext i8 %128 to i32
  %130 = call i32 @git_is_dir_sep(i32 noundef %129)
  %131 = icmp ne i32 %130, 0
  %132 = xor i1 %131, true
  br label %133

133:                                              ; preds = %127, %121
  %134 = phi i1 [ false, %121 ], [ %132, %127 ]
  br i1 %134, label %135, label %139

135:                                              ; preds = %133
  %136 = load i8, ptr %11, align 1, !tbaa !18
  %137 = load ptr, ptr %5, align 8, !tbaa !43
  %138 = getelementptr inbounds nuw i8, ptr %137, i32 1
  store ptr %138, ptr %5, align 8, !tbaa !43
  store i8 %136, ptr %137, align 1, !tbaa !18
  br label %121, !llvm.loop !107

139:                                              ; preds = %133
  %140 = load i8, ptr %11, align 1, !tbaa !18
  %141 = sext i8 %140 to i32
  %142 = call i32 @git_is_dir_sep(i32 noundef %141)
  %143 = icmp ne i32 %142, 0
  br i1 %143, label %144, label %159

144:                                              ; preds = %139
  %145 = load ptr, ptr %5, align 8, !tbaa !43
  %146 = getelementptr inbounds nuw i8, ptr %145, i32 1
  store ptr %146, ptr %5, align 8, !tbaa !43
  store i8 47, ptr %145, align 1, !tbaa !18
  br label %147

147:                                              ; preds = %152, %144
  %148 = load i8, ptr %11, align 1, !tbaa !18
  %149 = sext i8 %148 to i32
  %150 = call i32 @git_is_dir_sep(i32 noundef %149)
  %151 = icmp ne i32 %150, 0
  br i1 %151, label %152, label %156

152:                                              ; preds = %147
  %153 = load ptr, ptr %6, align 8, !tbaa !43
  %154 = getelementptr inbounds nuw i8, ptr %153, i32 1
  store ptr %154, ptr %6, align 8, !tbaa !43
  %155 = load i8, ptr %153, align 1, !tbaa !18
  store i8 %155, ptr %11, align 1, !tbaa !18
  br label %147, !llvm.loop !108

156:                                              ; preds = %147
  %157 = load ptr, ptr %6, align 8, !tbaa !43
  %158 = getelementptr inbounds i8, ptr %157, i32 -1
  store ptr %158, ptr %6, align 8, !tbaa !43
  br label %164

159:                                              ; preds = %139
  %160 = load i8, ptr %11, align 1, !tbaa !18
  %161 = icmp ne i8 %160, 0
  br i1 %161, label %163, label %162

162:                                              ; preds = %159
  store i32 6, ptr %12, align 4
  br label %210

163:                                              ; preds = %159
  br label %164

164:                                              ; preds = %163, %156
  store i32 7, ptr %12, align 4
  br label %210

165:                                              ; preds = %114, %92
  %166 = load ptr, ptr %5, align 8, !tbaa !43
  %167 = getelementptr inbounds i8, ptr %166, i32 -1
  store ptr %167, ptr %5, align 8, !tbaa !43
  %168 = load ptr, ptr %5, align 8, !tbaa !43
  %169 = load ptr, ptr %8, align 8, !tbaa !43
  %170 = icmp ule ptr %168, %169
  br i1 %170, label %171, label %172

171:                                              ; preds = %165
  store i32 -1, ptr %4, align 4
  store i32 1, ptr %12, align 4
  br label %210

172:                                              ; preds = %165
  br label %173

173:                                              ; preds = %185, %172
  %174 = load ptr, ptr %8, align 8, !tbaa !43
  %175 = load ptr, ptr %5, align 8, !tbaa !43
  %176 = icmp ult ptr %174, %175
  br i1 %176, label %177, label %183

177:                                              ; preds = %173
  %178 = load ptr, ptr %5, align 8, !tbaa !43
  %179 = getelementptr inbounds i8, ptr %178, i64 -1
  %180 = load i8, ptr %179, align 1, !tbaa !18
  %181 = sext i8 %180 to i32
  %182 = icmp ne i32 %181, 47
  br label %183

183:                                              ; preds = %177, %173
  %184 = phi i1 [ false, %173 ], [ %182, %177 ]
  br i1 %184, label %185, label %188

185:                                              ; preds = %183
  %186 = load ptr, ptr %5, align 8, !tbaa !43
  %187 = getelementptr inbounds i8, ptr %186, i32 -1
  store ptr %187, ptr %5, align 8, !tbaa !43
  br label %173, !llvm.loop !109

188:                                              ; preds = %183
  %189 = load ptr, ptr %7, align 8, !tbaa !90
  %190 = icmp ne ptr %189, null
  br i1 %190, label %191, label %209

191:                                              ; preds = %188
  %192 = load ptr, ptr %7, align 8, !tbaa !90
  %193 = load i32, ptr %192, align 4, !tbaa !4
  %194 = sext i32 %193 to i64
  %195 = load ptr, ptr %5, align 8, !tbaa !43
  %196 = load ptr, ptr %8, align 8, !tbaa !43
  %197 = ptrtoint ptr %195 to i64
  %198 = ptrtoint ptr %196 to i64
  %199 = sub i64 %197, %198
  %200 = icmp sgt i64 %194, %199
  br i1 %200, label %201, label %209

201:                                              ; preds = %191
  %202 = load ptr, ptr %5, align 8, !tbaa !43
  %203 = load ptr, ptr %8, align 8, !tbaa !43
  %204 = ptrtoint ptr %202 to i64
  %205 = ptrtoint ptr %203 to i64
  %206 = sub i64 %204, %205
  %207 = trunc i64 %206 to i32
  %208 = load ptr, ptr %7, align 8, !tbaa !90
  store i32 %207, ptr %208, align 4, !tbaa !4
  br label %209

209:                                              ; preds = %201, %191, %188
  store i32 0, ptr %12, align 4
  br label %210

210:                                              ; preds = %209, %171, %164, %162, %80
  call void @llvm.lifetime.end.p0(i64 1, ptr %11) #12
  %211 = load i32, ptr %12, align 4
  switch i32 %211, label %215 [
    i32 0, label %212
    i32 7, label %47
    i32 6, label %213
  ]

212:                                              ; preds = %210
  br label %47

213:                                              ; preds = %210
  %214 = load ptr, ptr %5, align 8, !tbaa !43
  store i8 0, ptr %214, align 1, !tbaa !18
  store i32 0, ptr %4, align 4
  store i32 1, ptr %12, align 4
  br label %215

215:                                              ; preds = %213, %210
  call void @llvm.lifetime.end.p0(i64 8, ptr %9) #12
  call void @llvm.lifetime.end.p0(i64 8, ptr %8) #12
  %216 = load i32, ptr %4, align 4
  ret i32 %216
}