; Function Attrs: nofree norecurse nosync nounwind memory(readwrite, inaccessiblemem: none) uwtable
define dso_local range(i32 -1, 1) i32 @normalize_path_copy_len(ptr noundef %0, ptr noundef readonly %1, ptr noundef %2) local_unnamed_addr #15 {
  %.val = load i8, ptr %1, align 1, !tbaa !14
  %4 = icmp eq i8 %.val, 47
  %5 = zext i1 %4 to i64
  %6 = getelementptr inbounds nuw i8, ptr %1, i64 %5
  br i1 %4, label %.lr.ph, label %.preheader110

.preheader110:                                    ; preds = %.lr.ph, %3
  %.060.lcssa = phi ptr [ %1, %3 ], [ %7, %.lr.ph ]
  %.057.lcssa = phi ptr [ %0, %3 ], [ %9, %.lr.ph ]
  br label %11

.lr.ph:                                           ; preds = %3, %.lr.ph
  %.057116 = phi ptr [ %9, %.lr.ph ], [ %0, %3 ]
  %.060115 = phi ptr [ %7, %.lr.ph ], [ %1, %3 ]
  %7 = getelementptr inbounds nuw i8, ptr %.060115, i64 1
  %8 = load i8, ptr %.060115, align 1, !tbaa !14
  %9 = getelementptr inbounds nuw i8, ptr %.057116, i64 1
  store i8 %8, ptr %.057116, align 1, !tbaa !14
  %10 = icmp ult ptr %7, %6
  br i1 %10, label %.lr.ph, label %.preheader110, !llvm.loop !88

11:                                               ; preds = %11, %.preheader110
  %.161 = phi ptr [ %13, %11 ], [ %.060.lcssa, %.preheader110 ]
  %12 = load i8, ptr %.161, align 1, !tbaa !14
  %.not = icmp eq i8 %12, 47
  %13 = getelementptr inbounds nuw i8, ptr %.161, i64 1
  br i1 %.not, label %11, label %.preheader109, !llvm.loop !89

.preheader109:                                    ; preds = %11
  %.not86 = icmp eq ptr %2, null
  %14 = ptrtoint ptr %.057.lcssa to i64
  br i1 %.not86, label %.preheader109.split.us.outer, label %.preheader109.split

.preheader109.split.us.outer.backedge:            ; preds = %30, %.preheader.us, %.lr.ph120.us
  %.ph.be = phi i8 [ %44, %.lr.ph120.us ], [ %.pr.us138, %.preheader.us ], [ %.pr.us138, %30 ]
  %.262.us.ph.be = phi ptr [ %.9119.us, %.lr.ph120.us ], [ %.6.us, %.preheader.us ], [ %.6.us, %30 ]
  %.158.us.ph.be = phi ptr [ %42, %.lr.ph120.us ], [ %.5.us, %.preheader.us ], [ %.5.us, %30 ]
  br label %.preheader109.split.us.outer

.preheader109.split.us.outer:                     ; preds = %.preheader109, %.preheader109.split.us.outer.backedge
  %.ph = phi i8 [ %.ph.be, %.preheader109.split.us.outer.backedge ], [ %12, %.preheader109 ]
  %.262.us.ph = phi ptr [ %.262.us.ph.be, %.preheader109.split.us.outer.backedge ], [ %.161, %.preheader109 ]
  %.158.us.ph = phi ptr [ %.158.us.ph.be, %.preheader109.split.us.outer.backedge ], [ %.057.lcssa, %.preheader109 ]
  br label %.preheader109.split.us

.preheader109.split.us:                           ; preds = %35, %.preheader109.split.us.outer
  %15 = phi i8 [ %.ph, %.preheader109.split.us.outer ], [ %36, %35 ]
  %.262.us = phi ptr [ %.262.us.ph, %.preheader109.split.us.outer ], [ %.464.us, %35 ]
  %16 = icmp eq i8 %15, 46
  br i1 %16, label %17, label %.preheader172

17:                                               ; preds = %.preheader109.split.us
  %18 = getelementptr inbounds nuw i8, ptr %.262.us, i64 1
  %19 = load i8, ptr %18, align 1, !tbaa !14
  switch i8 %19, label %.preheader172 [
    i8 0, label %.preheader172.loopexit.split.loop.exit205
    i8 47, label %33
    i8 46, label %20
  ]

20:                                               ; preds = %17
  %21 = getelementptr inbounds nuw i8, ptr %.262.us, i64 2
  %22 = load i8, ptr %21, align 1, !tbaa !14
  switch i8 %22, label %.preheader172 [
    i8 0, label %.loopexit.us
    i8 47, label %23
  ]

23:                                               ; preds = %20
  %24 = getelementptr inbounds nuw i8, ptr %.262.us, i64 3
  br label %25

25:                                               ; preds = %25, %23
  %.7.us = phi ptr [ %24, %23 ], [ %27, %25 ]
  %26 = load i8, ptr %.7.us, align 1, !tbaa !14
  %.not105.us = icmp eq i8 %26, 47
  %27 = getelementptr inbounds nuw i8, ptr %.7.us, i64 1
  br i1 %.not105.us, label %25, label %.loopexit.us, !llvm.loop !90

.loopexit.us:                                     ; preds = %25, %20
  %.pr.us138 = phi i8 [ %22, %20 ], [ %26, %25 ]
  %.6.us = phi ptr [ %21, %20 ], [ %.7.us, %25 ]
  %28 = getelementptr inbounds i8, ptr %.158.us.ph, i64 -1
  %.not84.us = icmp ugt ptr %28, %.057.lcssa
  br i1 %.not84.us, label %.preheader.us, label %.thread98

.preheader.us:                                    ; preds = %.loopexit.us, %30
  %.5.us = phi ptr [ %31, %30 ], [ %28, %.loopexit.us ]
  %29 = icmp ult ptr %.057.lcssa, %.5.us
  br i1 %29, label %30, label %.preheader109.split.us.outer.backedge

30:                                               ; preds = %.preheader.us
  %31 = getelementptr inbounds i8, ptr %.5.us, i64 -1
  %32 = load i8, ptr %31, align 1, !tbaa !14
  %.not85.us = icmp eq i8 %32, 47
  br i1 %.not85.us, label %.preheader109.split.us.outer.backedge, label %.preheader.us, !llvm.loop !91

33:                                               ; preds = %17
  %34 = getelementptr inbounds nuw i8, ptr %.262.us, i64 2
  br label %35

35:                                               ; preds = %35, %33
  %.464.us = phi ptr [ %34, %33 ], [ %37, %35 ]
  %36 = load i8, ptr %.464.us, align 1, !tbaa !14
  %.not103.us = icmp eq i8 %36, 47
  %37 = getelementptr inbounds nuw i8, ptr %.464.us, i64 1
  br i1 %.not103.us, label %35, label %.preheader109.split.us, !llvm.loop !92

.preheader172.loopexit.split.loop.exit205:        ; preds = %17
  %38 = getelementptr inbounds nuw i8, ptr %.262.us, i64 1
  br label %.preheader172

.preheader172:                                    ; preds = %.preheader172.loopexit.split.loop.exit205, %.preheader109.split.us, %17, %20
  %.8.us.ph = phi ptr [ %.262.us, %20 ], [ %.262.us, %17 ], [ %38, %.preheader172.loopexit.split.loop.exit205 ], [ %.262.us, %.preheader109.split.us ]
  br label %39

39:                                               ; preds = %.preheader172, %45
  %.8.us = phi ptr [ %40, %45 ], [ %.8.us.ph, %.preheader172 ]
  %.3.us = phi ptr [ %46, %45 ], [ %.158.us.ph, %.preheader172 ]
  %40 = getelementptr inbounds nuw i8, ptr %.8.us, i64 1
  %41 = load i8, ptr %.8.us, align 1, !tbaa !14
  switch i8 %41, label %45 [
    i8 0, label %.split.us
    i8 47, label %.lr.ph120.us.preheader
  ]

.lr.ph120.us.preheader:                           ; preds = %39
  %42 = getelementptr inbounds nuw i8, ptr %.3.us, i64 1
  store i8 47, ptr %.3.us, align 1, !tbaa !14
  br label %.lr.ph120.us

.lr.ph120.us:                                     ; preds = %.lr.ph120.us.preheader, %.lr.ph120.us
  %.9119.us = phi ptr [ %43, %.lr.ph120.us ], [ %40, %.lr.ph120.us.preheader ]
  %43 = getelementptr inbounds nuw i8, ptr %.9119.us, i64 1
  %44 = load i8, ptr %.9119.us, align 1, !tbaa !14
  %.not107.us = icmp eq i8 %44, 47
  br i1 %.not107.us, label %.lr.ph120.us, label %.preheader109.split.us.outer.backedge, !llvm.loop !93

45:                                               ; preds = %39
  %46 = getelementptr inbounds nuw i8, ptr %.3.us, i64 1
  store i8 %41, ptr %.3.us, align 1, !tbaa !14
  br label %39, !llvm.loop !94

thread-pre-split:                                 ; preds = %54, %.lr.ph120, %83, %.critedge2
  %.565.ph = phi ptr [ %.6, %.critedge2 ], [ %.6, %83 ], [ %.9119, %.lr.ph120 ], [ %.464, %54 ]
  %.259.ph = phi ptr [ %.5, %.critedge2 ], [ %.5, %83 ], [ %70, %.lr.ph120 ], [ %.158, %54 ]
  %.pr = load i8, ptr %.565.ph, align 1, !tbaa !14
  br label %.preheader109.split

.preheader109.split:                              ; preds = %.preheader109, %thread-pre-split
  %47 = phi i8 [ %.pr, %thread-pre-split ], [ %12, %.preheader109 ]
  %.262 = phi ptr [ %.565.ph, %thread-pre-split ], [ %.161, %.preheader109 ]
  %.158 = phi ptr [ %.259.ph, %thread-pre-split ], [ %.057.lcssa, %.preheader109 ]
  %48 = icmp eq i8 %47, 46
  br i1 %48, label %49, label %.preheader182

49:                                               ; preds = %.preheader109.split
  %50 = getelementptr inbounds nuw i8, ptr %.262, i64 1
  %51 = load i8, ptr %50, align 1, !tbaa !14
  switch i8 %51, label %.fold.split [
    i8 0, label %.preheader182
    i8 47, label %52
    i8 46, label %57
  ]

52:                                               ; preds = %49
  %53 = getelementptr inbounds nuw i8, ptr %.262, i64 2
  br label %54

54:                                               ; preds = %54, %52
  %.464 = phi ptr [ %53, %52 ], [ %56, %54 ]
  %55 = load i8, ptr %.464, align 1, !tbaa !14
  %.not103 = icmp eq i8 %55, 47
  %56 = getelementptr inbounds nuw i8, ptr %.464, i64 1
  br i1 %.not103, label %54, label %thread-pre-split, !llvm.loop !92

57:                                               ; preds = %49
  %58 = getelementptr inbounds nuw i8, ptr %.262, i64 2
  %59 = load i8, ptr %58, align 1, !tbaa !14
  switch i8 %59, label %.preheader182 [
    i8 0, label %.loopexit
    i8 47, label %60
  ]

60:                                               ; preds = %57
  %61 = getelementptr inbounds nuw i8, ptr %.262, i64 3
  br label %62

62:                                               ; preds = %62, %60
  %.7 = phi ptr [ %61, %60 ], [ %64, %62 ]
  %63 = load i8, ptr %.7, align 1, !tbaa !14
  %.not105 = icmp eq i8 %63, 47
  %64 = getelementptr inbounds nuw i8, ptr %.7, i64 1
  br i1 %.not105, label %62, label %.loopexit, !llvm.loop !90

.fold.split:                                      ; preds = %49
  br label %.preheader182

.preheader182:                                    ; preds = %57, %49, %.fold.split, %.preheader109.split
  %.8.ph = phi ptr [ %.262, %57 ], [ %.262, %.fold.split ], [ %50, %49 ], [ %.262, %.preheader109.split ]
  br label %65

65:                                               ; preds = %.preheader182, %68
  %.8 = phi ptr [ %66, %68 ], [ %.8.ph, %.preheader182 ]
  %.3 = phi ptr [ %69, %68 ], [ %.158, %.preheader182 ]
  %66 = getelementptr inbounds nuw i8, ptr %.8, i64 1
  %67 = load i8, ptr %.8, align 1, !tbaa !14
  switch i8 %67, label %68 [
    i8 0, label %.split.us
    i8 47, label %.lr.ph120.preheader
  ]

68:                                               ; preds = %65
  %69 = getelementptr inbounds nuw i8, ptr %.3, i64 1
  store i8 %67, ptr %.3, align 1, !tbaa !14
  br label %65, !llvm.loop !94

.lr.ph120.preheader:                              ; preds = %65
  %70 = getelementptr inbounds nuw i8, ptr %.3, i64 1
  store i8 47, ptr %.3, align 1, !tbaa !14
  br label %.lr.ph120

.lr.ph120:                                        ; preds = %.lr.ph120.preheader, %.lr.ph120
  %.9119 = phi ptr [ %71, %.lr.ph120 ], [ %66, %.lr.ph120.preheader ]
  %71 = getelementptr inbounds nuw i8, ptr %.9119, i64 1
  %72 = load i8, ptr %.9119, align 1, !tbaa !14
  %.not107 = icmp eq i8 %72, 47
  br i1 %.not107, label %.lr.ph120, label %thread-pre-split, !llvm.loop !93

.loopexit:                                        ; preds = %62, %57
  %.6 = phi ptr [ %58, %57 ], [ %.7, %62 ]
  %73 = getelementptr inbounds i8, ptr %.158, i64 -1
  %.not84 = icmp ugt ptr %73, %.057.lcssa
  br i1 %.not84, label %.preheader, label %.thread98

.preheader:                                       ; preds = %.loopexit, %75
  %.5 = phi ptr [ %76, %75 ], [ %73, %.loopexit ]
  %74 = icmp ult ptr %.057.lcssa, %.5
  br i1 %74, label %75, label %.critedge2

75:                                               ; preds = %.preheader
  %76 = getelementptr inbounds i8, ptr %.5, i64 -1
  %77 = load i8, ptr %76, align 1, !tbaa !14
  %.not85 = icmp eq i8 %77, 47
  br i1 %.not85, label %.critedge2, label %.preheader, !llvm.loop !91

.critedge2:                                       ; preds = %.preheader, %75
  %78 = load i32, ptr %2, align 4, !tbaa !4
  %79 = sext i32 %78 to i64
  %80 = ptrtoint ptr %.5 to i64
  %81 = sub i64 %80, %14
  %82 = icmp slt i64 %81, %79
  br i1 %82, label %83, label %thread-pre-split

83:                                               ; preds = %.critedge2
  %84 = trunc i64 %81 to i32
  store i32 %84, ptr %2, align 4, !tbaa !4
  br label %thread-pre-split

.split.us:                                        ; preds = %65, %39
  %.us-phi = phi ptr [ %.3.us, %39 ], [ %.3, %65 ]
  store i8 0, ptr %.us-phi, align 1, !tbaa !14
  br label %.thread98

.thread98:                                        ; preds = %.loopexit, %.loopexit.us, %.split.us
  %.2 = phi i32 [ 0, %.split.us ], [ -1, %.loopexit.us ], [ -1, %.loopexit ]
  ret i32 %.2
}